target datalayout = "e-m:e-p270:32:32-p271:32:32-p272:64:64-i64:64-i128:128-f80:128-n8:16:32:64-S128"
target triple = "x86_64-pc-linux-gnu"

%struct.la_zstream = type { ptr, i64, i64, ptr, i64, i64, i32, ptr, i32, ptr, ptr, ptr }
%struct.z_stream_s = type { ptr, i32, i64, ptr, i32, i64, ptr, ptr, ptr, ptr, ptr, i32, i64, i64 }

@.str.31 = private unnamed_addr constant [59 x i8] c"GZip compression failed: deflate() call returned status %d\00", align 1

; Function Attrs: nounwind uwtable
define internal i32 @compression_code_deflate(ptr noundef %0, ptr noundef %1, i32 noundef %2) #0 {
  %4 = alloca i32, align 4
  %5 = alloca ptr, align 8
  %6 = alloca ptr, align 8
  %7 = alloca i32, align 4
  %8 = alloca ptr, align 8
  %9 = alloca i32, align 4
  store ptr %0, ptr %5, align 8
  store ptr %1, ptr %6, align 8
  store i32 %2, ptr %7, align 4
  %10 = load ptr, ptr %6, align 8
  %11 = getelementptr inbounds %struct.la_zstream, ptr %10, i32 0, i32 9
  %12 = load ptr, ptr %11, align 8
  store ptr %12, ptr %8, align 8
  %13 = load ptr, ptr %6, align 8
  %14 = getelementptr inbounds %struct.la_zstream, ptr %13, i32 0, i32 0
  %15 = load ptr, ptr %14, align 8
  %16 = ptrtoint ptr %15 to i64
  %17 = inttoptr i64 %16 to ptr
  %18 = load ptr, ptr %8, align 8
  %19 = getelementptr inbounds %struct.z_stream_s, ptr %18, i32 0, i32 0
  store ptr %17, ptr %19, align 8
  %20 = load ptr, ptr %6, align 8
  %21 = getelementptr inbounds %struct.la_zstream, ptr %20, i32 0, i32 1
  %22 = load i64, ptr %21, align 8
  %23 = trunc i64 %22 to i32
  %24 = load ptr, ptr %8, align 8
  %25 = getelementptr inbounds %struct.z_stream_s, ptr %24, i32 0, i32 1
  store i32 %23, ptr %25, align 8
  %26 = load ptr, ptr %6, align 8
  %27 = getelementptr inbounds %struct.la_zstream, ptr %26, i32 0, i32 2
  %28 = load i64, ptr %27, align 8
  %29 = load ptr, ptr %8, align 8
  %30 = getelementptr inbounds %struct.z_stream_s, ptr %29, i32 0, i32 2
  store i64 %28, ptr %30, align 8
  %31 = load ptr, ptr %6, align 8
  %32 = getelementptr inbounds %struct.la_zstream, ptr %31, i32 0, i32 3
  %33 = load ptr, ptr %32, align 8
  %34 = load ptr, ptr %8, align 8
  %35 = getelementptr inbounds %struct.z_stream_s, ptr %34, i32 0, i32 3
  store ptr %33, ptr %35, align 8
  %36 = load ptr, ptr %6, align 8
  %37 = getelementptr inbounds %struct.la_zstream, ptr %36, i32 0, i32 4
  %38 = load i64, ptr %37, align 8
  %39 = trunc i64 %38 to i32
  %40 = load ptr, ptr %8, align 8
  %41 = getelementptr inbounds %struct.z_stream_s, ptr %40, i32 0, i32 4
  store i32 %39, ptr %41, align 8
  %42 = load ptr, ptr %6, align 8
  %43 = getelementptr inbounds %struct.la_zstream, ptr %42, i32 0, i32 5
  %44 = load i64, ptr %43, align 8
  %45 = load ptr, ptr %8, align 8
  %46 = getelementptr inbounds %struct.z_stream_s, ptr %45, i32 0, i32 5
  store i64 %44, ptr %46, align 8
  %47 = load ptr, ptr %8, align 8
  %48 = load i32, ptr %7, align 4
  %49 = icmp eq i32 %48, 0
  %50 = select i1 %49, i32 4, i32 0
  %51 = call i32 @cm_zlib_deflate(ptr noundef %47, i32 noundef %50)
  store i32 %51, ptr %9, align 4
  %52 = load ptr, ptr %8, align 8
  %53 = getelementptr inbounds %struct.z_stream_s, ptr %52, i32 0, i32 0
  %54 = load ptr, ptr %53, align 8
  %55 = load ptr, ptr %6, align 8
  %56 = getelementptr inbounds %struct.la_zstream, ptr %55, i32 0, i32 0
  store ptr %54, ptr %56, align 8
  %57 = load ptr, ptr %8, align 8
  %58 = getelementptr inbounds %struct.z_stream_s, ptr %57, i32 0, i32 1
  %59 = load i32, ptr %58, align 8
  %60 = zext i32 %59 to i64
  %61 = load ptr, ptr %6, align 8
  %62 = getelementptr inbounds %struct.la_zstream, ptr %61, i32 0, i32 1
  store i64 %60, ptr %62, align 8
  %63 = load ptr, ptr %8, align 8
  %64 = getelementptr inbounds %struct.z_stream_s, ptr %63, i32 0, i32 2
  %65 = load i64, ptr %64, align 8
  %66 = load ptr, ptr %6, align 8
  %67 = getelementptr inbounds %struct.la_zstream, ptr %66, i32 0, i32 2
  store i64 %65, ptr %67, align 8
  %68 = load ptr, ptr %8, align 8
  %69 = getelementptr inbounds %struct.z_stream_s, ptr %68, i32 0, i32 3
  %70 = load ptr, ptr %69, align 8
  %71 = load ptr, ptr %6, align 8
  %72 = getelementptr inbounds %struct.la_zstream, ptr %71, i32 0, i32 3
  store ptr %70, ptr %72, align 8
  %73 = load ptr, ptr %8, align 8
  %74 = getelementptr inbounds %struct.z_stream_s, ptr %73, i32 0, i32 4
  %75 = load i32, ptr %74, align 8
  %76 = zext i32 %75 to i64
  %77 = load ptr, ptr %6, align 8
  %78 = getelementptr inbounds %struct.la_zstream, ptr %77, i32 0, i32 4
  store i64 %76, ptr %78, align 8
  %79 = load ptr, ptr %8, align 8
  %80 = getelementptr inbounds %struct.z_stream_s, ptr %79, i32 0, i32 5
  %81 = load i64, ptr %80, align 8
  %82 = load ptr, ptr %6, align 8
  %83 = getelementptr inbounds %struct.la_zstream, ptr %82, i32 0, i32 5
  store i64 %81, ptr %83, align 8
  %84 = load i32, ptr %9, align 4
  switch i32 %84, label %87 [
    i32 0, label %85
    i32 1, label %86
  ]

85:                                               ; preds = %3
  store i32 0, ptr %4, align 4
  br label %90

86:                                               ; preds = %3
  store i32 1, ptr %4, align 4
  br label %90

87:                                               ; preds = %3
  %88 = load ptr, ptr %5, align 8
  %89 = load i32, ptr %9, align 4
  call void (ptr, i32, ptr, ...) @archive_set_error(ptr noundef %88, i32 noundef -1, ptr noundef @.str.31, i32 noundef %89)
  store i32 -30, ptr %4, align 4
  br label %90

90:                                               ; preds = %87, %86, %85
  %91 = load i32, ptr %4, align 4
  ret i32 %91
}