; Function Attrs: nounwind uwtable
define internal range(i32 -30, 2) i32 @compression_code_deflate(ptr noundef %0, ptr noundef captures(none) %1, i32 noundef %2) #0 {
  %4 = getelementptr inbounds nuw i8, ptr %1, i64 72
  %5 = load ptr, ptr %4, align 8
  %6 = load ptr, ptr %1, align 8
  store ptr %6, ptr %5, align 8
  %7 = getelementptr inbounds nuw i8, ptr %1, i64 8
  %8 = load i64, ptr %7, align 8
  %9 = trunc i64 %8 to i32
  %10 = getelementptr inbounds nuw i8, ptr %5, i64 8
  store i32 %9, ptr %10, align 8
  %11 = getelementptr inbounds nuw i8, ptr %1, i64 16
  %12 = load i64, ptr %11, align 8
  %13 = getelementptr inbounds nuw i8, ptr %5, i64 16
  store i64 %12, ptr %13, align 8
  %14 = getelementptr inbounds nuw i8, ptr %1, i64 24
  %15 = load ptr, ptr %14, align 8
  %16 = getelementptr inbounds nuw i8, ptr %5, i64 24
  store ptr %15, ptr %16, align 8
  %17 = getelementptr inbounds nuw i8, ptr %1, i64 32
  %18 = load i64, ptr %17, align 8
  %19 = trunc i64 %18 to i32
  %20 = getelementptr inbounds nuw i8, ptr %5, i64 32
  store i32 %19, ptr %20, align 8
  %21 = getelementptr inbounds nuw i8, ptr %1, i64 40
  %22 = load i64, ptr %21, align 8
  %23 = getelementptr inbounds nuw i8, ptr %5, i64 40
  store i64 %22, ptr %23, align 8
  %24 = icmp eq i32 %2, 0
  %25 = select i1 %24, i32 4, i32 0
  %26 = tail call i32 @cm_zlib_deflate(ptr noundef nonnull %5, i32 noundef %25) #18
  %27 = load ptr, ptr %5, align 8
  store ptr %27, ptr %1, align 8
  %28 = load i32, ptr %10, align 8
  %29 = zext i32 %28 to i64
  store i64 %29, ptr %7, align 8
  %30 = load i64, ptr %13, align 8
  store i64 %30, ptr %11, align 8
  %31 = load ptr, ptr %16, align 8
  store ptr %31, ptr %14, align 8
  %32 = load i32, ptr %20, align 8
  %33 = zext i32 %32 to i64
  store i64 %33, ptr %17, align 8
  %34 = load i64, ptr %23, align 8
  store i64 %34, ptr %21, align 8
  %switch = icmp ult i32 %26, 2
  br i1 %switch, label %36, label %35

35:                                               ; preds = %3
  tail call void (ptr, i32, ptr, ...) @archive_set_error(ptr noundef %0, i32 noundef -1, ptr noundef nonnull @.str.31, i32 noundef %26) #18
  br label %36

36:                                               ; preds = %3, %35
  %.0 = phi i32 [ -30, %35 ], [ %26, %3 ]
  ret i32 %.0
}